target datalayout = "e-m:e-p270:32:32-p271:32:32-p272:64:64-i64:64-i128:128-f80:128-n8:16:32:64-S128"
target triple = "x86_64-pc-linux-gnu"

%struct._address = type { i32, i32, ptr, ptr }
%struct._packet_info = type { ptr, ptr, i32, i32, %struct.nstime_t, %struct.nstime_t, %struct.nstime_t, i8, ptr, ptr, ptr, ptr, %struct._address, %struct._address, %struct._address, %struct._address, %struct._address, %struct._address, i32, ptr, i8, [3 x i8], %struct.anon, i32, i32, i32, i32, ptr, i8, ptr, ptr, i16, i16, i32, i32, i16, i32, i32, ptr, ptr, ptr, i8, i8, i16, i16, i16, i32, i16, i16, ptr, ptr, ptr, ptr, ptr, i32, i32 }
%struct.nstime_t = type { i64, i32 }
%struct.anon = type { i8, [3 x i8] }

@.str.8 = private unnamed_addr constant [3 x i8] c"%s\00", align 1
@.str.10 = private unnamed_addr constant [30 x i8] c"[wrong length for IP address]\00", align 1
@hf_radius_framed_ip_address = internal global i32 0, align 4
@.str.303 = private unnamed_addr constant [11 x i8] c"Negotiated\00", align 1
@.str.304 = private unnamed_addr constant [9 x i8] c"Assigned\00", align 1

; Function Attrs: null_pointer_is_valid sspstrong uwtable
define internal ptr @dissect_framed_ip_address(ptr noundef %0, ptr noundef %1, ptr noundef %2) #0 {
  %4 = alloca ptr, align 8
  %5 = alloca ptr, align 8
  %6 = alloca ptr, align 8
  %7 = alloca ptr, align 8
  %8 = alloca i32, align 4
  %9 = alloca i32, align 4
  %10 = alloca i32, align 4
  %11 = alloca ptr, align 8
  %12 = alloca i32, align 4
  %13 = alloca i32, align 4
  %14 = alloca i32, align 4
  %15 = alloca i32, align 4
  store ptr %0, ptr %5, align 8
  store ptr %1, ptr %6, align 8
  store ptr %2, ptr %7, align 8
  call void @llvm.lifetime.start.p0(i64 4, ptr %8) #17
  call void @llvm.lifetime.start.p0(i64 4, ptr %9) #17
  call void @llvm.lifetime.start.p0(i64 4, ptr %10) #17
  call void @llvm.lifetime.start.p0(i64 8, ptr %11) #17
  %16 = load ptr, ptr %6, align 8
  %17 = call i32 @tvb_reported_length(ptr noundef %16)
  store i32 %17, ptr %8, align 4
  %18 = load i32, ptr %8, align 4
  %19 = icmp ne i32 %18, 4
  br i1 %19, label %20, label %21

20:                                               ; preds = %3
  store ptr @.str.10, ptr %4, align 8
  store i32 1, ptr %12, align 4
  br label %84

21:                                               ; preds = %3
  %22 = load ptr, ptr %6, align 8
  %23 = call i32 @tvb_get_ipv4(ptr noundef %22, i32 noundef 0)
  store i32 %23, ptr %9, align 4
  call void @llvm.lifetime.start.p0(i64 4, ptr %13) #17
  call void @llvm.lifetime.start.p0(i64 4, ptr %14) #17
  %24 = load i32, ptr %9, align 4
  store i32 %24, ptr %14, align 4
  %25 = load i32, ptr %14, align 4
  %26 = call i1 @llvm.is.constant.i32(i32 %25)
  br i1 %26, label %27, label %43

27:                                               ; preds = %21
  %28 = load i32, ptr %14, align 4
  %29 = and i32 %28, 255
  %30 = shl i32 %29, 24
  %31 = load i32, ptr %14, align 4
  %32 = and i32 %31, 65280
  %33 = shl i32 %32, 8
  %34 = or i32 %30, %33
  %35 = load i32, ptr %14, align 4
  %36 = and i32 %35, 16711680
  %37 = lshr i32 %36, 8
  %38 = or i32 %34, %37
  %39 = load i32, ptr %14, align 4
  %40 = and i32 %39, -16777216
  %41 = lshr i32 %40, 24
  %42 = or i32 %38, %41
  store i32 %42, ptr %13, align 4
  br label %46

43:                                               ; preds = %21
  %44 = load i32, ptr %14, align 4
  %45 = call i32 asm "bswapl $0", "=r,0,~{dirflag},~{fpsr},~{flags}"(i32 %44) #23, !srcloc !17
  store i32 %45, ptr %13, align 4
  br label %46

46:                                               ; preds = %43, %27
  %47 = load i32, ptr %13, align 4
  store i32 %47, ptr %15, align 4
  call void @llvm.lifetime.end.p0(i64 4, ptr %14) #17
  call void @llvm.lifetime.end.p0(i64 4, ptr %13) #17
  %48 = load i32, ptr %15, align 4
  store i32 %48, ptr %10, align 4
  %49 = load i32, ptr %10, align 4
  %50 = icmp eq i32 %49, -1
  br i1 %50, label %51, label %59

51:                                               ; preds = %46
  store ptr @.str.303, ptr %11, align 8
  %52 = load ptr, ptr %5, align 8
  %53 = load i32, ptr @hf_radius_framed_ip_address, align 4
  %54 = load ptr, ptr %6, align 8
  %55 = load i32, ptr %8, align 4
  %56 = load i32, ptr %9, align 4
  %57 = load ptr, ptr %11, align 8
  %58 = call ptr (ptr, i32, ptr, i32, i32, i32, ptr, ...) @proto_tree_add_ipv4_format_value(ptr noundef %52, i32 noundef %53, ptr noundef %54, i32 noundef 0, i32 noundef %55, i32 noundef %56, ptr noundef @.str.8, ptr noundef %57)
  br label %82

59:                                               ; preds = %46
  %60 = load i32, ptr %10, align 4
  %61 = icmp eq i32 %60, -2
  br i1 %61, label %62, label %70

62:                                               ; preds = %59
  store ptr @.str.304, ptr %11, align 8
  %63 = load ptr, ptr %5, align 8
  %64 = load i32, ptr @hf_radius_framed_ip_address, align 4
  %65 = load ptr, ptr %6, align 8
  %66 = load i32, ptr %8, align 4
  %67 = load i32, ptr %9, align 4
  %68 = load ptr, ptr %11, align 8
  %69 = call ptr (ptr, i32, ptr, i32, i32, i32, ptr, ...) @proto_tree_add_ipv4_format_value(ptr noundef %63, i32 noundef %64, ptr noundef %65, i32 noundef 0, i32 noundef %66, i32 noundef %67, ptr noundef @.str.8, ptr noundef %68)
  br label %81

70:                                               ; preds = %59
  %71 = load ptr, ptr %7, align 8
  %72 = getelementptr inbounds nuw %struct._packet_info, ptr %71, i32 0, i32 51
  %73 = load ptr, ptr %72, align 8
  %74 = load ptr, ptr %6, align 8
  %75 = call ptr @tvb_address_to_str(ptr noundef %73, ptr noundef %74, i32 noundef 2, i32 noundef 0)
  store ptr %75, ptr %11, align 8
  %76 = load ptr, ptr %5, align 8
  %77 = load i32, ptr @hf_radius_framed_ip_address, align 4
  %78 = load ptr, ptr %6, align 8
  %79 = load i32, ptr %8, align 4
  %80 = call ptr @proto_tree_add_item(ptr noundef %76, i32 noundef %77, ptr noundef %78, i32 noundef 0, i32 noundef %79, i32 noundef 0)
  br label %81

81:                                               ; preds = %70, %62
  br label %82

82:                                               ; preds = %81, %51
  %83 = load ptr, ptr %11, align 8
  store ptr %83, ptr %4, align 8
  store i32 1, ptr %12, align 4
  br label %84

84:                                               ; preds = %82, %20
  call void @llvm.lifetime.end.p0(i64 8, ptr %11) #17
  call void @llvm.lifetime.end.p0(i64 4, ptr %10) #17
  call void @llvm.lifetime.end.p0(i64 4, ptr %9) #17
  call void @llvm.lifetime.end.p0(i64 4, ptr %8) #17
  %85 = load ptr, ptr %4, align 8
  ret ptr %85
}