; Function Attrs: null_pointer_is_valid sspstrong uwtable
define internal ptr @dissect_framed_ip_address(ptr noundef %0, ptr noundef %1, ptr noundef readonly captures(none) %2) #0 {
  %4 = tail call i32 @tvb_reported_length(ptr noundef %1)
  %.not = icmp eq i32 %4, 4
  br i1 %.not, label %5, label %20

5:                                                ; preds = %3
  %6 = tail call i32 @tvb_get_ipv4(ptr noundef %1, i32 noundef 0)
  %7 = tail call i32 asm "bswapl $0", "=r,0,~{dirflag},~{fpsr},~{flags}"(i32 %6) #19, !srcloc !16
  switch i32 %7, label %14 [
    i32 -1, label %8
    i32 -2, label %11
  ]

8:                                                ; preds = %5
  %9 = load i32, ptr @hf_radius_framed_ip_address, align 4
  %10 = tail call ptr (ptr, i32, ptr, i32, i32, i32, ptr, ...) @proto_tree_add_ipv4_format_value(ptr noundef %0, i32 noundef %9, ptr noundef %1, i32 noundef 0, i32 noundef 4, i32 noundef %6, ptr noundef nonnull @.str.8, ptr noundef nonnull @.str.303)
  br label %20

11:                                               ; preds = %5
  %12 = load i32, ptr @hf_radius_framed_ip_address, align 4
  %13 = tail call ptr (ptr, i32, ptr, i32, i32, i32, ptr, ...) @proto_tree_add_ipv4_format_value(ptr noundef %0, i32 noundef %12, ptr noundef %1, i32 noundef 0, i32 noundef 4, i32 noundef %6, ptr noundef nonnull @.str.8, ptr noundef nonnull @.str.304)
  br label %20

14:                                               ; preds = %5
  %15 = getelementptr inbounds nuw i8, ptr %2, i64 408
  %16 = load ptr, ptr %15, align 8
  %17 = tail call ptr @tvb_address_to_str(ptr noundef %16, ptr noundef %1, i32 noundef 2, i32 noundef 0)
  %18 = load i32, ptr @hf_radius_framed_ip_address, align 4
  %19 = tail call ptr @proto_tree_add_item(ptr noundef %0, i32 noundef %18, ptr noundef %1, i32 noundef 0, i32 noundef 4, i32 noundef 0)
  br label %20

20:                                               ; preds = %8, %14, %11, %3
  %.0 = phi ptr [ @.str.10, %3 ], [ @.str.303, %8 ], [ @.str.304, %11 ], [ %17, %14 ]
  ret ptr %.0
}